(lp0
ccopy_reg
_reconstructor
p1
(c__main__
Contact
p2
c__builtin__
object
p3
Ntp4
Rp5
(dp6
S'phone'
p7
S'555-1337'
p8
sS'last'
p9
S'Gamber'
p10
sS'full_name'
p11
S'Ben Gamber'
p12
sS'first'
p13
S'Ben'
p14
sbag1
(g2
g3
Ntp15
Rp16
(dp17
g7
S'555-5555'
p18
sg9
S'Jacob Jingleheimer Schmidt'
p19
sg11
S'John Jacob Jingleheimer Schmidt'
p20
sg13
S'John'
p21
sbag1
(g2
g3
Ntp22
Rp23
(dp24
g7
S'555-1234'
p25
sg9
S'Martin'
p26
sg11
S'Jonathan Martin'
p27
sg13
S'Jonathan'
p28
sba.